; Function Attrs: mustprogress uwtable
define hidden noundef zeroext i1 @_ZNK8datatype4decl6plugin15is_fully_interpEP4sort(ptr noundef nonnull align 8 captures(none) dereferenceable(360) %0, ptr readnone captures(none) %1) unnamed_addr #4 align 2 {
  %3 = getelementptr inbounds nuw i8, ptr %0, i64 24
  %4 = load ptr, ptr %3, align 8, !tbaa !171
  %5 = icmp eq ptr %4, null
  br i1 %5, label %6, label %_ZNK8datatype4decl6plugin1uEv.exit

6:                                                ; preds = %2
  %7 = tail call noalias noundef ptr @_ZN6memory8allocateEm(i64 noundef 24)
  %8 = getelementptr inbounds nuw i8, ptr %0, i64 8
  %9 = load ptr, ptr %8, align 8, !tbaa !253
  store ptr %9, ptr %7, align 8, !tbaa !33
  %10 = getelementptr inbounds nuw i8, ptr %7, i64 8
  store i32 -1, ptr %10, align 8, !tbaa !47
  %11 = getelementptr inbounds nuw i8, ptr %7, i64 16
  store ptr null, ptr %11, align 8, !tbaa !254
  %12 = load ptr, ptr %3, align 8, !tbaa !171
  %.not.i.i = icmp eq ptr %12, %7
  br i1 %.not.i.i, label %_ZNK8datatype4decl6plugin1uEv.exit, label %13

13:                                               ; preds = %6
  %14 = icmp eq ptr %12, null
  br i1 %14, label %_Z7deallocIN8datatype4utilEEvPT_.exit.i.i, label %15

15:                                               ; preds = %13
  tail call void @_ZN6memory10deallocateEPv(ptr noundef nonnull %12)
  br label %_Z7deallocIN8datatype4utilEEvPT_.exit.i.i

_Z7deallocIN8datatype4utilEEvPT_.exit.i.i:        ; preds = %15, %13
  store ptr %7, ptr %3, align 8, !tbaa !171
  br label %_ZNK8datatype4decl6plugin1uEv.exit

_ZNK8datatype4decl6plugin1uEv.exit:               ; preds = %2, %6, %_Z7deallocIN8datatype4utilEEvPT_.exit.i.i
  ret i1 true
}